target datalayout = "e-m:e-p270:32:32-p271:32:32-p272:64:64-i64:64-i128:128-f80:128-n8:16:32:64-S128"
target triple = "x86_64-pc-linux-gnu"

%struct.OSSL_HPKE_KEM_INFO = type { i16, ptr, ptr, ptr, i64, i64, i64, i64, i8 }
%struct.ecx_key_st = type { ptr, ptr, i8, [57 x i8], ptr, i64, i32, %struct.CRYPTO_REF_COUNT }
%struct.CRYPTO_REF_COUNT = type { i32 }

@.str = private unnamed_addr constant [51 x i8] c"../openssl/providers/implementations/kem/ecx_kem.c\00", align 1
@__func__.ossl_ecx_dhkem_derive_private = private unnamed_addr constant [30 x i8] c"ossl_ecx_dhkem_derive_private\00", align 1
@.str.1 = private unnamed_addr constant [43 x i8] c"ikm length is :%zu, should be at least %zu\00", align 1
@.str.2 = private unnamed_addr constant [5 x i8] c"HKDF\00", align 1
@LABEL_KEM = internal constant [4 x i8] c"KEM\00", align 1
@.str.3 = private unnamed_addr constant [8 x i8] c"dkp_prk\00", align 1
@.str.4 = private unnamed_addr constant [3 x i8] c"sk\00", align 1
@.str.5 = private unnamed_addr constant [7 x i8] c"X25519\00", align 1
@.str.6 = private unnamed_addr constant [5 x i8] c"X448\00", align 1

; Function Attrs: nounwind uwtable
define internal ptr @get_kem_info(ptr noundef %0) #0 {
  %2 = alloca ptr, align 8
  %3 = alloca ptr, align 8
  store ptr %0, ptr %2, align 8, !tbaa !3
  call void @llvm.lifetime.start.p0(i64 8, ptr %3) #5
  store ptr null, ptr %3, align 8, !tbaa !8
  %4 = load ptr, ptr %2, align 8, !tbaa !3
  %5 = getelementptr inbounds nuw %struct.ecx_key_st, ptr %4, i32 0, i32 6
  %6 = load i32, ptr %5, align 8, !tbaa !29
  %7 = icmp eq i32 %6, 0
  br i1 %7, label %8, label %9

8:                                                ; preds = %1
  store ptr @.str.5, ptr %3, align 8, !tbaa !8
  br label %10

9:                                                ; preds = %1
  store ptr @.str.6, ptr %3, align 8, !tbaa !8
  br label %10

10:                                               ; preds = %9, %8
  %11 = load ptr, ptr %3, align 8, !tbaa !8
  %12 = call ptr @ossl_HPKE_KEM_INFO_find_curve(ptr noundef %11)
  call void @llvm.lifetime.end.p0(i64 8, ptr %3) #5
  ret ptr %12
}

; Function Attrs: nounwind uwtable
define i32 @ossl_ecx_dhkem_derive_private(ptr noundef %0, ptr noundef %1, ptr noundef %2, i64 noundef %3) #0 {
  %5 = alloca i32, align 4
  %6 = alloca ptr, align 8
  %7 = alloca ptr, align 8
  %8 = alloca ptr, align 8
  %9 = alloca i64, align 8
  %10 = alloca i32, align 4
  %11 = alloca ptr, align 8
  %12 = alloca [64 x i8], align 16
  %13 = alloca [2 x i8], align 1
  %14 = alloca ptr, align 8
  %15 = alloca i32, align 4
  store ptr %0, ptr %6, align 8, !tbaa !3
  store ptr %1, ptr %7, align 8, !tbaa !8
  store ptr %2, ptr %8, align 8, !tbaa !8
  store i64 %3, ptr %9, align 8, !tbaa !10
  call void @llvm.lifetime.start.p0(i64 4, ptr %10) #5
  store i32 0, ptr %10, align 4, !tbaa !12
  call void @llvm.lifetime.start.p0(i64 8, ptr %11) #5
  store ptr null, ptr %11, align 8, !tbaa !14
  call void @llvm.lifetime.start.p0(i64 64, ptr %12) #5
  call void @llvm.lifetime.start.p0(i64 2, ptr %13) #5
  call void @llvm.lifetime.start.p0(i64 8, ptr %14) #5
  %16 = load ptr, ptr %6, align 8, !tbaa !3
  %17 = call ptr @get_kem_info(ptr noundef %16)
  store ptr %17, ptr %14, align 8, !tbaa !16
  %18 = load i64, ptr %9, align 8, !tbaa !10
  %19 = load ptr, ptr %14, align 8, !tbaa !16
  %20 = getelementptr inbounds nuw %struct.OSSL_HPKE_KEM_INFO, ptr %19, i32 0, i32 7
  %21 = load i64, ptr %20, align 8, !tbaa !17
  %22 = icmp ult i64 %18, %21
  br i1 %22, label %23, label %28

23:                                               ; preds = %4
  call void @ERR_new()
  call void @ERR_set_debug(ptr noundef @.str, i32 noundef 349, ptr noundef @__func__.ossl_ecx_dhkem_derive_private)
  %24 = load i64, ptr %9, align 8, !tbaa !10
  %25 = load ptr, ptr %14, align 8, !tbaa !16
  %26 = getelementptr inbounds nuw %struct.OSSL_HPKE_KEM_INFO, ptr %25, i32 0, i32 7
  %27 = load i64, ptr %26, align 8, !tbaa !17
  call void (i32, i32, ptr, ...) @ERR_set_error(i32 noundef 57, i32 noundef 230, ptr noundef @.str.1, i64 noundef %24, i64 noundef %27)
  br label %83

28:                                               ; preds = %4
  %29 = load ptr, ptr %14, align 8, !tbaa !16
  %30 = getelementptr inbounds nuw %struct.OSSL_HPKE_KEM_INFO, ptr %29, i32 0, i32 3
  %31 = load ptr, ptr %30, align 8, !tbaa !20
  %32 = load ptr, ptr %6, align 8, !tbaa !3
  %33 = getelementptr inbounds nuw %struct.ecx_key_st, ptr %32, i32 0, i32 0
  %34 = load ptr, ptr %33, align 8, !tbaa !21
  %35 = load ptr, ptr %6, align 8, !tbaa !3
  %36 = getelementptr inbounds nuw %struct.ecx_key_st, ptr %35, i32 0, i32 1
  %37 = load ptr, ptr %36, align 8, !tbaa !25
  %38 = call ptr @ossl_kdf_ctx_create(ptr noundef @.str.2, ptr noundef %31, ptr noundef %34, ptr noundef %37)
  store ptr %38, ptr %11, align 8, !tbaa !14
  %39 = load ptr, ptr %11, align 8, !tbaa !14
  %40 = icmp eq ptr %39, null
  br i1 %40, label %41, label %42

41:                                               ; preds = %28
  store i32 0, ptr %5, align 4
  store i32 1, ptr %15, align 4
  br label %87

42:                                               ; preds = %28
  %43 = load ptr, ptr %14, align 8, !tbaa !16
  %44 = getelementptr inbounds nuw %struct.OSSL_HPKE_KEM_INFO, ptr %43, i32 0, i32 0
  %45 = load i16, ptr %44, align 8, !tbaa !26
  %46 = zext i16 %45 to i32
  %47 = sdiv i32 %46, 256
  %48 = trunc i32 %47 to i8
  %49 = getelementptr inbounds [2 x i8], ptr %13, i64 0, i64 0
  store i8 %48, ptr %49, align 1, !tbaa !27
  %50 = load ptr, ptr %14, align 8, !tbaa !16
  %51 = getelementptr inbounds nuw %struct.OSSL_HPKE_KEM_INFO, ptr %50, i32 0, i32 0
  %52 = load i16, ptr %51, align 8, !tbaa !26
  %53 = zext i16 %52 to i32
  %54 = srem i32 %53, 256
  %55 = trunc i32 %54 to i8
  %56 = getelementptr inbounds [2 x i8], ptr %13, i64 0, i64 1
  store i8 %55, ptr %56, align 1, !tbaa !27
  %57 = load ptr, ptr %11, align 8, !tbaa !14
  %58 = getelementptr inbounds [64 x i8], ptr %12, i64 0, i64 0
  %59 = load ptr, ptr %14, align 8, !tbaa !16
  %60 = getelementptr inbounds nuw %struct.OSSL_HPKE_KEM_INFO, ptr %59, i32 0, i32 4
  %61 = load i64, ptr %60, align 8, !tbaa !28
  %62 = getelementptr inbounds [2 x i8], ptr %13, i64 0, i64 0
  %63 = load ptr, ptr %8, align 8, !tbaa !8
  %64 = load i64, ptr %9, align 8, !tbaa !10
  %65 = call i32 @ossl_hpke_labeled_extract(ptr noundef %57, ptr noundef %58, i64 noundef %61, ptr noundef null, i64 noundef 0, ptr noundef @LABEL_KEM, ptr noundef %62, i64 noundef 2, ptr noundef @.str.3, ptr noundef %63, i64 noundef %64)
  %66 = icmp ne i32 %65, 0
  br i1 %66, label %68, label %67

67:                                               ; preds = %42
  br label %83

68:                                               ; preds = %42
  %69 = load ptr, ptr %11, align 8, !tbaa !14
  %70 = load ptr, ptr %7, align 8, !tbaa !8
  %71 = load ptr, ptr %14, align 8, !tbaa !16
  %72 = getelementptr inbounds nuw %struct.OSSL_HPKE_KEM_INFO, ptr %71, i32 0, i32 7
  %73 = load i64, ptr %72, align 8, !tbaa !17
  %74 = getelementptr inbounds [64 x i8], ptr %12, i64 0, i64 0
  %75 = load ptr, ptr %14, align 8, !tbaa !16
  %76 = getelementptr inbounds nuw %struct.OSSL_HPKE_KEM_INFO, ptr %75, i32 0, i32 4
  %77 = load i64, ptr %76, align 8, !tbaa !28
  %78 = getelementptr inbounds [2 x i8], ptr %13, i64 0, i64 0
  %79 = call i32 @ossl_hpke_labeled_expand(ptr noundef %69, ptr noundef %70, i64 noundef %73, ptr noundef %74, i64 noundef %77, ptr noundef @LABEL_KEM, ptr noundef %78, i64 noundef 2, ptr noundef @.str.4, ptr noundef null, i64 noundef 0)
  %80 = icmp ne i32 %79, 0
  br i1 %80, label %82, label %81

81:                                               ; preds = %68
  br label %83

82:                                               ; preds = %68
  store i32 1, ptr %10, align 4, !tbaa !12
  br label %83

83:                                               ; preds = %82, %81, %67, %23
  %84 = getelementptr inbounds [64 x i8], ptr %12, i64 0, i64 0
  call void @OPENSSL_cleanse(ptr noundef %84, i64 noundef 64)
  %85 = load ptr, ptr %11, align 8, !tbaa !14
  call void @EVP_KDF_CTX_free(ptr noundef %85)
  %86 = load i32, ptr %10, align 4, !tbaa !12
  store i32 %86, ptr %5, align 4
  store i32 1, ptr %15, align 4
  br label %87

87:                                               ; preds = %83, %41
  call void @llvm.lifetime.end.p0(i64 8, ptr %14) #5
  call void @llvm.lifetime.end.p0(i64 2, ptr %13) #5
  call void @llvm.lifetime.end.p0(i64 64, ptr %12) #5
  call void @llvm.lifetime.end.p0(i64 8, ptr %11) #5
  call void @llvm.lifetime.end.p0(i64 4, ptr %10) #5
  %88 = load i32, ptr %5, align 4
  ret i32 %88
}