; Function Attrs: nounwind uwtable
define range(i32 0, 2) i32 @ossl_ecx_dhkem_derive_private(ptr noundef readonly captures(none) %0, ptr noundef %1, ptr noundef %2, i64 noundef %3) local_unnamed_addr #0 {
  %5 = alloca [64 x i8], align 16
  %6 = alloca [2 x i8], align 1
  call void @llvm.lifetime.start.p0(i64 64, ptr nonnull %5) #5
  call void @llvm.lifetime.start.p0(i64 2, ptr nonnull %6) #5
  %7 = getelementptr i8, ptr %0, i64 96
  %.val = load i32, ptr %7, align 8, !tbaa !3
  %8 = icmp eq i32 %.val, 0
  %.str.5..str.6.i = select i1 %8, ptr @.str.5, ptr @.str.6
  %9 = tail call ptr @ossl_HPKE_KEM_INFO_find_curve(ptr noundef nonnull %.str.5..str.6.i) #5
  %10 = getelementptr inbounds nuw i8, ptr %9, i64 56
  %11 = load i64, ptr %10, align 8, !tbaa !13
  %12 = icmp ult i64 %3, %11
  br i1 %12, label %13, label %15

13:                                               ; preds = %4
  tail call void @ERR_new() #5
  tail call void @ERR_set_debug(ptr noundef nonnull @.str, i32 noundef 349, ptr noundef nonnull @__func__.ossl_ecx_dhkem_derive_private) #5
  %14 = load i64, ptr %10, align 8, !tbaa !13
  tail call void (i32, i32, ptr, ...) @ERR_set_error(i32 noundef 57, i32 noundef 230, ptr noundef nonnull @.str.1, i64 noundef %3, i64 noundef %14) #5
  br label %36

15:                                               ; preds = %4
  %16 = getelementptr inbounds nuw i8, ptr %9, i64 24
  %17 = load ptr, ptr %16, align 8, !tbaa !16
  %18 = load ptr, ptr %0, align 8, !tbaa !17
  %19 = getelementptr inbounds nuw i8, ptr %0, i64 8
  %20 = load ptr, ptr %19, align 8, !tbaa !18
  %21 = tail call ptr @ossl_kdf_ctx_create(ptr noundef nonnull @.str.2, ptr noundef %17, ptr noundef %18, ptr noundef %20) #5
  %22 = icmp eq ptr %21, null
  br i1 %22, label %37, label %23

23:                                               ; preds = %15
  %24 = load i16, ptr %9, align 8, !tbaa !19
  %25 = lshr i16 %24, 8
  %26 = trunc nuw i16 %25 to i8
  store i8 %26, ptr %6, align 1, !tbaa !20
  %27 = trunc i16 %24 to i8
  %28 = getelementptr inbounds nuw i8, ptr %6, i64 1
  store i8 %27, ptr %28, align 1, !tbaa !20
  %29 = getelementptr inbounds nuw i8, ptr %9, i64 32
  %30 = load i64, ptr %29, align 8, !tbaa !21
  %31 = call i32 @ossl_hpke_labeled_extract(ptr noundef nonnull %21, ptr noundef nonnull %5, i64 noundef %30, ptr noundef null, i64 noundef 0, ptr noundef nonnull @LABEL_KEM, ptr noundef nonnull %6, i64 noundef 2, ptr noundef nonnull @.str.3, ptr noundef %2, i64 noundef %3) #5
  %.not = icmp eq i32 %31, 0
  br i1 %.not, label %36, label %32

32:                                               ; preds = %23
  %33 = load i64, ptr %10, align 8, !tbaa !13
  %34 = load i64, ptr %29, align 8, !tbaa !21
  %35 = call i32 @ossl_hpke_labeled_expand(ptr noundef nonnull %21, ptr noundef %1, i64 noundef %33, ptr noundef nonnull %5, i64 noundef %34, ptr noundef nonnull @LABEL_KEM, ptr noundef nonnull %6, i64 noundef 2, ptr noundef nonnull @.str.4, ptr noundef null, i64 noundef 0) #5
  %.not25 = icmp ne i32 %35, 0
  %spec.select = zext i1 %.not25 to i32
  br label %36

36:                                               ; preds = %32, %23, %13
  %.022 = phi i32 [ 0, %13 ], [ 0, %23 ], [ %spec.select, %32 ]
  %.021 = phi ptr [ null, %13 ], [ %21, %23 ], [ %21, %32 ]
  call void @OPENSSL_cleanse(ptr noundef nonnull %5, i64 noundef 64) #5
  call void @EVP_KDF_CTX_free(ptr noundef %.021) #5
  br label %37

37:                                               ; preds = %15, %36
  %.0 = phi i32 [ %.022, %36 ], [ 0, %15 ]
  call void @llvm.lifetime.end.p0(i64 2, ptr nonnull %6) #5
  call void @llvm.lifetime.end.p0(i64 64, ptr nonnull %5) #5
  ret i32 %.0
}